target datalayout = "e-m:e-p270:32:32-p271:32:32-p272:64:64-i64:64-i128:128-f80:128-n8:16:32:64-S128"
target triple = "x86_64-unknown-linux-gnu"

%"class.icu_75::CharsetDetector" = type { ptr, ptr, i32, i8, i8, ptr }

; Function Attrs: mustprogress uwtable
define noundef ptr @_ZN6icu_7515CharsetDetector6detectER10UErrorCode(ptr noundef nonnull align 8 dereferenceable(32) %this, ptr noundef nonnull align 4 dereferenceable(4) %status) #0 align 2 {
entry:
  %retval = alloca ptr, align 8
  %this.addr = alloca ptr, align 8
  %status.addr = alloca ptr, align 8
  %maxMatchesFound = alloca i32, align 4
  store ptr %this, ptr %this.addr, align 8
  store ptr %status, ptr %status.addr, align 8
  %this1 = load ptr, ptr %this.addr, align 8
  store i32 0, ptr %maxMatchesFound, align 4
  %0 = load ptr, ptr %status.addr, align 8
  %call = call noundef ptr @_ZN6icu_7515CharsetDetector9detectAllERiR10UErrorCode(ptr noundef nonnull align 8 dereferenceable(32) %this1, ptr noundef nonnull align 4 dereferenceable(4) %maxMatchesFound, ptr noundef nonnull align 4 dereferenceable(4) %0)
  %1 = load i32, ptr %maxMatchesFound, align 4
  %cmp = icmp sgt i32 %1, 0
  br i1 %cmp, label %if.then, label %if.else

if.then:                                          ; preds = %entry
  %resultArray = getelementptr inbounds %"class.icu_75::CharsetDetector", ptr %this1, i32 0, i32 1
  %2 = load ptr, ptr %resultArray, align 8
  %arrayidx = getelementptr inbounds ptr, ptr %2, i64 0
  %3 = load ptr, ptr %arrayidx, align 8
  store ptr %3, ptr %retval, align 8
  br label %return

if.else:                                          ; preds = %entry
  store ptr null, ptr %retval, align 8
  br label %return

return:                                           ; preds = %if.else, %if.then
  %4 = load ptr, ptr %retval, align 8
  ret ptr %4
}