; Function Attrs: mustprogress uwtable
define noundef ptr @_ZN6icu_7515CharsetDetector6detectER10UErrorCode(ptr nocapture noundef nonnull align 8 dereferenceable(32) %this, ptr noundef nonnull align 4 dereferenceable(4) %status) local_unnamed_addr #0 align 2 {
entry:
  %maxMatchesFound = alloca i32, align 4
  store i32 0, ptr %maxMatchesFound, align 4
  %call = call noundef ptr @_ZN6icu_7515CharsetDetector9detectAllERiR10UErrorCode(ptr noundef nonnull align 8 dereferenceable(32) %this, ptr noundef nonnull align 4 dereferenceable(4) %maxMatchesFound, ptr noundef nonnull align 4 dereferenceable(4) %status)
  %0 = load i32, ptr %maxMatchesFound, align 4
  %cmp = icmp sgt i32 %0, 0
  br i1 %cmp, label %if.then, label %return

if.then:                                          ; preds = %entry
  %resultArray = getelementptr inbounds i8, ptr %this, i64 8
  %1 = load ptr, ptr %resultArray, align 8
  %2 = load ptr, ptr %1, align 8
  br label %return

return:                                           ; preds = %entry, %if.then
  %retval.0 = phi ptr [ %2, %if.then ], [ null, %entry ]
  ret ptr %retval.0
}